target datalayout = "e-m:e-p270:32:32-p271:32:32-p272:64:64-i64:64-i128:128-f80:128-n8:16:32:64-S128"
target triple = "x86_64-unknown-linux-gnu"

%"class.google::protobuf::compiler::cpp::FileGenerator" = type { %"class.absl::lts_20230802::flat_hash_set", %"class.std::vector", ptr, %"struct.google::protobuf::compiler::cpp::Options", %"class.google::protobuf::compiler::cpp::MessageSCCAnalyzer", %"class.absl::lts_20230802::flat_hash_map.53", %"class.std::vector.62", %"class.std::vector.67", %"class.std::vector.72", %"class.std::vector.77", %"class.std::vector.82" }
%"class.absl::lts_20230802::flat_hash_set" = type { %"class.absl::lts_20230802::container_internal::raw_hash_set" }
%"class.absl::lts_20230802::container_internal::raw_hash_set" = type { %"class.absl::lts_20230802::container_internal::CompressedTuple" }
%"class.absl::lts_20230802::container_internal::CompressedTuple" = type { %"struct.absl::lts_20230802::container_internal::internal_compressed_tuple::CompressedTupleImpl" }
%"struct.absl::lts_20230802::container_internal::internal_compressed_tuple::CompressedTupleImpl" = type { %"struct.absl::lts_20230802::container_internal::internal_compressed_tuple::Storage" }
%"struct.absl::lts_20230802::container_internal::internal_compressed_tuple::Storage" = type { %"class.absl::lts_20230802::container_internal::CommonFields" }
%"class.absl::lts_20230802::container_internal::CommonFields" = type { ptr, ptr, i64, %"class.absl::lts_20230802::container_internal::CompressedTuple.0" }
%"class.absl::lts_20230802::container_internal::CompressedTuple.0" = type { %"struct.absl::lts_20230802::container_internal::internal_compressed_tuple::CompressedTupleImpl.1" }
%"struct.absl::lts_20230802::container_internal::internal_compressed_tuple::CompressedTupleImpl.1" = type { %"struct.absl::lts_20230802::container_internal::internal_compressed_tuple::Storage.2" }
%"struct.absl::lts_20230802::container_internal::internal_compressed_tuple::Storage.2" = type { i64 }
%"class.std::vector" = type { %"struct.std::_Vector_base" }
%"struct.std::_Vector_base" = type { %"struct.std::_Vector_base<absl::lts_20230802::AnyInvocable<void (google::protobuf::io::Printer *)>, std::allocator<absl::lts_20230802::AnyInvocable<void (google::protobuf::io::Printer *)>>>::_Vector_impl" }
%"struct.std::_Vector_base<absl::lts_20230802::AnyInvocable<void (google::protobuf::io::Printer *)>, std::allocator<absl::lts_20230802::AnyInvocable<void (google::protobuf::io::Printer *)>>>::_Vector_impl" = type { %"struct.std::_Vector_base<absl::lts_20230802::AnyInvocable<void (google::protobuf::io::Printer *)>, std::allocator<absl::lts_20230802::AnyInvocable<void (google::protobuf::io::Printer *)>>>::_Vector_impl_data" }
%"struct.std::_Vector_base<absl::lts_20230802::AnyInvocable<void (google::protobuf::io::Printer *)>, std::allocator<absl::lts_20230802::AnyInvocable<void (google::protobuf::io::Printer *)>>>::_Vector_impl_data" = type { ptr, ptr, ptr }
%"struct.google::protobuf::compiler::cpp::Options" = type <{ ptr, ptr, %"class.std::__cxx11::basic_string", %"class.std::__cxx11::basic_string", %"class.std::__cxx11::basic_string", %"class.std::__cxx11::basic_string", %"struct.google::protobuf::compiler::cpp::FieldListenerOptions", i32, i32, i8, i8, i8, i8, i8, i8, i8, i8, i8, i8, i8, i8, i8, i8, [2 x i8] }>
%"class.std::__cxx11::basic_string" = type { %"struct.std::__cxx11::basic_string<char>::_Alloc_hider", i64, %union.anon }
%"struct.std::__cxx11::basic_string<char>::_Alloc_hider" = type { ptr }
%union.anon = type { i64, [8 x i8] }
%"struct.google::protobuf::compiler::cpp::FieldListenerOptions" = type { i8, %"class.absl::lts_20230802::flat_hash_set.13" }
%"class.absl::lts_20230802::flat_hash_set.13" = type { %"class.absl::lts_20230802::container_internal::raw_hash_set.14" }
%"class.absl::lts_20230802::container_internal::raw_hash_set.14" = type { %"class.absl::lts_20230802::container_internal::CompressedTuple.15" }
%"class.absl::lts_20230802::container_internal::CompressedTuple.15" = type { %"struct.absl::lts_20230802::container_internal::internal_compressed_tuple::CompressedTupleImpl.16" }
%"struct.absl::lts_20230802::container_internal::internal_compressed_tuple::CompressedTupleImpl.16" = type { %"struct.absl::lts_20230802::container_internal::internal_compressed_tuple::Storage" }
%"class.google::protobuf::compiler::cpp::MessageSCCAnalyzer" = type { %"class.google::protobuf::compiler::SCCAnalyzer", %"struct.google::protobuf::compiler::cpp::Options", %"class.absl::lts_20230802::flat_hash_map.42" }
%"class.google::protobuf::compiler::SCCAnalyzer" = type { %"class.absl::lts_20230802::flat_hash_map", %"class.std::vector.32", i32, %"class.std::vector.37" }
%"class.absl::lts_20230802::flat_hash_map" = type { %"class.absl::lts_20230802::container_internal::raw_hash_map" }
%"class.absl::lts_20230802::container_internal::raw_hash_map" = type { %"class.absl::lts_20230802::container_internal::raw_hash_set.23" }
%"class.absl::lts_20230802::container_internal::raw_hash_set.23" = type { %"class.absl::lts_20230802::container_internal::CompressedTuple.24" }
%"class.absl::lts_20230802::container_internal::CompressedTuple.24" = type { %"struct.absl::lts_20230802::container_internal::internal_compressed_tuple::CompressedTupleImpl.25" }
%"struct.absl::lts_20230802::container_internal::internal_compressed_tuple::CompressedTupleImpl.25" = type { %"struct.absl::lts_20230802::container_internal::internal_compressed_tuple::Storage" }
%"class.std::vector.32" = type { %"struct.std::_Vector_base.33" }
%"struct.std::_Vector_base.33" = type { %"struct.std::_Vector_base<const google::protobuf::Descriptor *, std::allocator<const google::protobuf::Descriptor *>>::_Vector_impl" }
%"struct.std::_Vector_base<const google::protobuf::Descriptor *, std::allocator<const google::protobuf::Descriptor *>>::_Vector_impl" = type { %"struct.std::_Vector_base<const google::protobuf::Descriptor *, std::allocator<const google::protobuf::Descriptor *>>::_Vector_impl_data" }
%"struct.std::_Vector_base<const google::protobuf::Descriptor *, std::allocator<const google::protobuf::Descriptor *>>::_Vector_impl_data" = type { ptr, ptr, ptr }
%"class.std::vector.37" = type { %"struct.std::_Vector_base.38" }
%"struct.std::_Vector_base.38" = type { %"struct.std::_Vector_base<std::unique_ptr<google::protobuf::compiler::SCC>, std::allocator<std::unique_ptr<google::protobuf::compiler::SCC>>>::_Vector_impl" }
%"struct.std::_Vector_base<std::unique_ptr<google::protobuf::compiler::SCC>, std::allocator<std::unique_ptr<google::protobuf::compiler::SCC>>>::_Vector_impl" = type { %"struct.std::_Vector_base<std::unique_ptr<google::protobuf::compiler::SCC>, std::allocator<std::unique_ptr<google::protobuf::compiler::SCC>>>::_Vector_impl_data" }
%"struct.std::_Vector_base<std::unique_ptr<google::protobuf::compiler::SCC>, std::allocator<std::unique_ptr<google::protobuf::compiler::SCC>>>::_Vector_impl_data" = type { ptr, ptr, ptr }
%"class.absl::lts_20230802::flat_hash_map.42" = type { %"class.absl::lts_20230802::container_internal::raw_hash_map.43" }
%"class.absl::lts_20230802::container_internal::raw_hash_map.43" = type { %"class.absl::lts_20230802::container_internal::raw_hash_set.44" }
%"class.absl::lts_20230802::container_internal::raw_hash_set.44" = type { %"class.absl::lts_20230802::container_internal::CompressedTuple.45" }
%"class.absl::lts_20230802::container_internal::CompressedTuple.45" = type { %"struct.absl::lts_20230802::container_internal::internal_compressed_tuple::CompressedTupleImpl.46" }
%"struct.absl::lts_20230802::container_internal::internal_compressed_tuple::CompressedTupleImpl.46" = type { %"struct.absl::lts_20230802::container_internal::internal_compressed_tuple::Storage" }
%"class.absl::lts_20230802::flat_hash_map.53" = type { %"class.absl::lts_20230802::container_internal::raw_hash_map.54" }
%"class.absl::lts_20230802::container_internal::raw_hash_map.54" = type { %"class.absl::lts_20230802::container_internal::raw_hash_set.55" }
%"class.absl::lts_20230802::container_internal::raw_hash_set.55" = type { %"class.absl::lts_20230802::container_internal::CompressedTuple.56" }
%"class.absl::lts_20230802::container_internal::CompressedTuple.56" = type { %"struct.absl::lts_20230802::container_internal::internal_compressed_tuple::CompressedTupleImpl.57" }
%"struct.absl::lts_20230802::container_internal::internal_compressed_tuple::CompressedTupleImpl.57" = type { %"struct.absl::lts_20230802::container_internal::internal_compressed_tuple::Storage" }
%"class.std::vector.62" = type { %"struct.std::_Vector_base.63" }
%"struct.std::_Vector_base.63" = type { %"struct.std::_Vector_base<std::unique_ptr<google::protobuf::compiler::cpp::MessageGenerator>, std::allocator<std::unique_ptr<google::protobuf::compiler::cpp::MessageGenerator>>>::_Vector_impl" }
%"struct.std::_Vector_base<std::unique_ptr<google::protobuf::compiler::cpp::MessageGenerator>, std::allocator<std::unique_ptr<google::protobuf::compiler::cpp::MessageGenerator>>>::_Vector_impl" = type { %"struct.std::_Vector_base<std::unique_ptr<google::protobuf::compiler::cpp::MessageGenerator>, std::allocator<std::unique_ptr<google::protobuf::compiler::cpp::MessageGenerator>>>::_Vector_impl_data" }
%"struct.std::_Vector_base<std::unique_ptr<google::protobuf::compiler::cpp::MessageGenerator>, std::allocator<std::unique_ptr<google::protobuf::compiler::cpp::MessageGenerator>>>::_Vector_impl_data" = type { ptr, ptr, ptr }
%"class.std::vector.67" = type { %"struct.std::_Vector_base.68" }
%"struct.std::_Vector_base.68" = type { %"struct.std::_Vector_base<int, std::allocator<int>>::_Vector_impl" }
%"struct.std::_Vector_base<int, std::allocator<int>>::_Vector_impl" = type { %"struct.std::_Vector_base<int, std::allocator<int>>::_Vector_impl_data" }
%"struct.std::_Vector_base<int, std::allocator<int>>::_Vector_impl_data" = type { ptr, ptr, ptr }
%"class.std::vector.72" = type { %"struct.std::_Vector_base.73" }
%"struct.std::_Vector_base.73" = type { %"struct.std::_Vector_base<std::unique_ptr<google::protobuf::compiler::cpp::EnumGenerator>, std::allocator<std::unique_ptr<google::protobuf::compiler::cpp::EnumGenerator>>>::_Vector_impl" }
%"struct.std::_Vector_base<std::unique_ptr<google::protobuf::compiler::cpp::EnumGenerator>, std::allocator<std::unique_ptr<google::protobuf::compiler::cpp::EnumGenerator>>>::_Vector_impl" = type { %"struct.std::_Vector_base<std::unique_ptr<google::protobuf::compiler::cpp::EnumGenerator>, std::allocator<std::unique_ptr<google::protobuf::compiler::cpp::EnumGenerator>>>::_Vector_impl_data" }
%"struct.std::_Vector_base<std::unique_ptr<google::protobuf::compiler::cpp::EnumGenerator>, std::allocator<std::unique_ptr<google::protobuf::compiler::cpp::EnumGenerator>>>::_Vector_impl_data" = type { ptr, ptr, ptr }
%"class.std::vector.77" = type { %"struct.std::_Vector_base.78" }
%"struct.std::_Vector_base.78" = type { %"struct.std::_Vector_base<std::unique_ptr<google::protobuf::compiler::cpp::ServiceGenerator>, std::allocator<std::unique_ptr<google::protobuf::compiler::cpp::ServiceGenerator>>>::_Vector_impl" }
%"struct.std::_Vector_base<std::unique_ptr<google::protobuf::compiler::cpp::ServiceGenerator>, std::allocator<std::unique_ptr<google::protobuf::compiler::cpp::ServiceGenerator>>>::_Vector_impl" = type { %"struct.std::_Vector_base<std::unique_ptr<google::protobuf::compiler::cpp::ServiceGenerator>, std::allocator<std::unique_ptr<google::protobuf::compiler::cpp::ServiceGenerator>>>::_Vector_impl_data" }
%"struct.std::_Vector_base<std::unique_ptr<google::protobuf::compiler::cpp::ServiceGenerator>, std::allocator<std::unique_ptr<google::protobuf::compiler::cpp::ServiceGenerator>>>::_Vector_impl_data" = type { ptr, ptr, ptr }
%"class.std::vector.82" = type { %"struct.std::_Vector_base.83" }
%"struct.std::_Vector_base.83" = type { %"struct.std::_Vector_base<std::unique_ptr<google::protobuf::compiler::cpp::ExtensionGenerator>, std::allocator<std::unique_ptr<google::protobuf::compiler::cpp::ExtensionGenerator>>>::_Vector_impl" }
%"struct.std::_Vector_base<std::unique_ptr<google::protobuf::compiler::cpp::ExtensionGenerator>, std::allocator<std::unique_ptr<google::protobuf::compiler::cpp::ExtensionGenerator>>>::_Vector_impl" = type { %"struct.std::_Vector_base<std::unique_ptr<google::protobuf::compiler::cpp::ExtensionGenerator>, std::allocator<std::unique_ptr<google::protobuf::compiler::cpp::ExtensionGenerator>>>::_Vector_impl_data" }
%"struct.std::_Vector_base<std::unique_ptr<google::protobuf::compiler::cpp::ExtensionGenerator>, std::allocator<std::unique_ptr<google::protobuf::compiler::cpp::ExtensionGenerator>>>::_Vector_impl_data" = type { ptr, ptr, ptr }
%"class.std::unique_ptr.143" = type { %"struct.std::__uniq_ptr_data.144" }
%"struct.std::__uniq_ptr_data.144" = type { %"class.std::__uniq_ptr_impl.145" }
%"class.std::__uniq_ptr_impl.145" = type { %"class.std::tuple.146" }
%"class.std::tuple.146" = type { %"struct.std::_Tuple_impl.147" }
%"struct.std::_Tuple_impl.147" = type { %"struct.std::_Head_base.150" }
%"struct.std::_Head_base.150" = type { ptr }

; Function Attrs: mustprogress nounwind uwtable
define linkonce_odr hidden noundef nonnull align 8 dereferenceable(8) ptr @_ZNSt10_Head_baseILm0EPN6google8protobuf8compiler3cpp13EnumGeneratorELb0EE7_M_headERKS6_(ptr noundef nonnull align 8 dereferenceable(8) %__b) #5 comdat align 2 {
entry:
  %__b.addr = alloca ptr, align 8
  store ptr %__b, ptr %__b.addr, align 8
  %0 = load ptr, ptr %__b.addr, align 8
  %_M_head_impl = getelementptr inbounds %"struct.std::_Head_base.150", ptr %0, i32 0, i32 0
  ret ptr %_M_head_impl
}

; Function Attrs: mustprogress nounwind uwtable
define linkonce_odr hidden noundef nonnull align 8 dereferenceable(8) ptr @_ZNSt11_Tuple_implILm0EJPN6google8protobuf8compiler3cpp13EnumGeneratorESt14default_deleteIS4_EEE7_M_headERKS8_(ptr noundef nonnull align 8 dereferenceable(8) %__t) #5 comdat align 2 {
entry:
  %__t.addr = alloca ptr, align 8
  store ptr %__t, ptr %__t.addr, align 8
  %0 = load ptr, ptr %__t.addr, align 8
  %call = call noundef nonnull align 8 dereferenceable(8) ptr @_ZNSt10_Head_baseILm0EPN6google8protobuf8compiler3cpp13EnumGeneratorELb0EE7_M_headERKS6_(ptr noundef nonnull align 8 dereferenceable(8) %0) #3
  ret ptr %call
}

; Function Attrs: mustprogress nounwind uwtable
define linkonce_odr hidden noundef nonnull align 8 dereferenceable(8) ptr @_ZSt12__get_helperILm0EPN6google8protobuf8compiler3cpp13EnumGeneratorEJSt14default_deleteIS4_EEERKT0_RKSt11_Tuple_implIXT_EJS8_DpT1_EE(ptr noundef nonnull align 8 dereferenceable(8) %__t) #5 comdat {
entry:
  %__t.addr = alloca ptr, align 8
  store ptr %__t, ptr %__t.addr, align 8
  %0 = load ptr, ptr %__t.addr, align 8
  %call = call noundef nonnull align 8 dereferenceable(8) ptr @_ZNSt11_Tuple_implILm0EJPN6google8protobuf8compiler3cpp13EnumGeneratorESt14default_deleteIS4_EEE7_M_headERKS8_(ptr noundef nonnull align 8 dereferenceable(8) %0) #3
  ret ptr %call
}

; Function Attrs: mustprogress nounwind uwtable
define linkonce_odr hidden noundef nonnull align 8 dereferenceable(8) ptr @_ZSt3getILm0EJPN6google8protobuf8compiler3cpp13EnumGeneratorESt14default_deleteIS4_EEERKNSt13tuple_elementIXT_ESt5tupleIJDpT0_EEE4typeERKSC_(ptr noundef nonnull align 8 dereferenceable(8) %__t) #5 comdat {
entry:
  %__t.addr = alloca ptr, align 8
  store ptr %__t, ptr %__t.addr, align 8
  %0 = load ptr, ptr %__t.addr, align 8
  %call = call noundef nonnull align 8 dereferenceable(8) ptr @_ZSt12__get_helperILm0EPN6google8protobuf8compiler3cpp13EnumGeneratorEJSt14default_deleteIS4_EEERKT0_RKSt11_Tuple_implIXT_EJS8_DpT1_EE(ptr noundef nonnull align 8 dereferenceable(8) %0) #3
  ret ptr %call
}

; Function Attrs: mustprogress nounwind uwtable
define linkonce_odr hidden noundef ptr @_ZNKSt15__uniq_ptr_implIN6google8protobuf8compiler3cpp13EnumGeneratorESt14default_deleteIS4_EE6_M_ptrEv(ptr noundef nonnull align 8 dereferenceable(8) %this) #5 comdat align 2 {
entry:
  %this.addr = alloca ptr, align 8
  store ptr %this, ptr %this.addr, align 8
  %this1 = load ptr, ptr %this.addr, align 8
  %_M_t = getelementptr inbounds %"class.std::__uniq_ptr_impl.145", ptr %this1, i32 0, i32 0
  %call = call noundef nonnull align 8 dereferenceable(8) ptr @_ZSt3getILm0EJPN6google8protobuf8compiler3cpp13EnumGeneratorESt14default_deleteIS4_EEERKNSt13tuple_elementIXT_ESt5tupleIJDpT0_EEE4typeERKSC_(ptr noundef nonnull align 8 dereferenceable(8) %_M_t) #3
  %0 = load ptr, ptr %call, align 8
  ret ptr %0
}

; Function Attrs: mustprogress nounwind uwtable
define linkonce_odr hidden noundef ptr @_ZNKSt10unique_ptrIN6google8protobuf8compiler3cpp13EnumGeneratorESt14default_deleteIS4_EE3getEv(ptr noundef nonnull align 8 dereferenceable(8) %this) #5 comdat align 2 {
entry:
  %this.addr = alloca ptr, align 8
  store ptr %this, ptr %this.addr, align 8
  %this1 = load ptr, ptr %this.addr, align 8
  %_M_t = getelementptr inbounds %"class.std::unique_ptr.143", ptr %this1, i32 0, i32 0
  %call = call noundef ptr @_ZNKSt15__uniq_ptr_implIN6google8protobuf8compiler3cpp13EnumGeneratorESt14default_deleteIS4_EE6_M_ptrEv(ptr noundef nonnull align 8 dereferenceable(8) %_M_t) #3
  ret ptr %call
}

; Function Attrs: mustprogress nounwind uwtable
define linkonce_odr hidden noundef ptr @_ZNKSt10unique_ptrIN6google8protobuf8compiler3cpp13EnumGeneratorESt14default_deleteIS4_EEptEv(ptr noundef nonnull align 8 dereferenceable(8) %this) #5 comdat align 2 {
entry:
  %this.addr = alloca ptr, align 8
  store ptr %this, ptr %this.addr, align 8
  %this1 = load ptr, ptr %this.addr, align 8
  %call = call noundef ptr @_ZNKSt10unique_ptrIN6google8protobuf8compiler3cpp13EnumGeneratorESt14default_deleteIS4_EE3getEv(ptr noundef nonnull align 8 dereferenceable(8) %this1) #3
  ret ptr %call
}

; Function Attrs: mustprogress nounwind uwtable
define linkonce_odr hidden noundef nonnull align 8 dereferenceable(8) ptr @_ZNSt6vectorISt10unique_ptrIN6google8protobuf8compiler3cpp13EnumGeneratorESt14default_deleteIS5_EESaIS8_EEixEm(ptr noundef nonnull align 8 dereferenceable(24) %this, i64 noundef %__n) #5 comdat align 2 {
entry:
  %this.addr = alloca ptr, align 8
  %__n.addr = alloca i64, align 8
  store ptr %this, ptr %this.addr, align 8
  store i64 %__n, ptr %__n.addr, align 8
  %this1 = load ptr, ptr %this.addr, align 8
  %_M_impl = getelementptr inbounds %"struct.std::_Vector_base.73", ptr %this1, i32 0, i32 0
  %_M_start = getelementptr inbounds %"struct.std::_Vector_base<std::unique_ptr<google::protobuf::compiler::cpp::EnumGenerator>, std::allocator<std::unique_ptr<google::protobuf::compiler::cpp::EnumGenerator>>>::_Vector_impl_data", ptr %_M_impl, i32 0, i32 0
  %0 = load ptr, ptr %_M_start, align 8
  %1 = load i64, ptr %__n.addr, align 8
  %add.ptr = getelementptr inbounds %"class.std::unique_ptr.143", ptr %0, i64 %1
  ret ptr %add.ptr
}

; Function Attrs: mustprogress nounwind uwtable
define linkonce_odr hidden noundef i64 @_ZNKSt6vectorISt10unique_ptrIN6google8protobuf8compiler3cpp13EnumGeneratorESt14default_deleteIS5_EESaIS8_EE4sizeEv(ptr noundef nonnull align 8 dereferenceable(24) %this) #5 comdat align 2 {
entry:
  %this.addr = alloca ptr, align 8
  store ptr %this, ptr %this.addr, align 8
  %this1 = load ptr, ptr %this.addr, align 8
  %_M_impl = getelementptr inbounds %"struct.std::_Vector_base.73", ptr %this1, i32 0, i32 0
  %_M_finish = getelementptr inbounds %"struct.std::_Vector_base<std::unique_ptr<google::protobuf::compiler::cpp::EnumGenerator>, std::allocator<std::unique_ptr<google::protobuf::compiler::cpp::EnumGenerator>>>::_Vector_impl_data", ptr %_M_impl, i32 0, i32 1
  %0 = load ptr, ptr %_M_finish, align 8
  %_M_impl2 = getelementptr inbounds %"struct.std::_Vector_base.73", ptr %this1, i32 0, i32 0
  %_M_start = getelementptr inbounds %"struct.std::_Vector_base<std::unique_ptr<google::protobuf::compiler::cpp::EnumGenerator>, std::allocator<std::unique_ptr<google::protobuf::compiler::cpp::EnumGenerator>>>::_Vector_impl_data", ptr %_M_impl2, i32 0, i32 0
  %1 = load ptr, ptr %_M_start, align 8
  %sub.ptr.lhs.cast = ptrtoint ptr %0 to i64
  %sub.ptr.rhs.cast = ptrtoint ptr %1 to i64
  %sub.ptr.sub = sub i64 %sub.ptr.lhs.cast, %sub.ptr.rhs.cast
  %sub.ptr.div = sdiv exact i64 %sub.ptr.sub, 8
  ret i64 %sub.ptr.div
}

; Function Attrs: mustprogress uwtable
define void @_ZN6google8protobuf8compiler3cpp13FileGenerator23GenerateEnumDefinitionsEPNS0_2io7PrinterE(ptr noundef nonnull align 8 dereferenceable(752) %this, ptr noundef %p) #4 align 2 {
entry:
  %this.addr = alloca ptr, align 8
  %p.addr = alloca ptr, align 8
  %i = alloca i32, align 4
  store ptr %this, ptr %this.addr, align 8
  store ptr %p, ptr %p.addr, align 8
  %this1 = load ptr, ptr %this.addr, align 8
  store i32 0, ptr %i, align 4
  br label %for.cond

for.cond:                                         ; preds = %for.inc, %entry
  %0 = load i32, ptr %i, align 4
  %conv = sext i32 %0 to i64
  %enum_generators_ = getelementptr inbounds %"class.google::protobuf::compiler::cpp::FileGenerator", ptr %this1, i32 0, i32 8
  %call = call noundef i64 @_ZNKSt6vectorISt10unique_ptrIN6google8protobuf8compiler3cpp13EnumGeneratorESt14default_deleteIS5_EESaIS8_EE4sizeEv(ptr noundef nonnull align 8 dereferenceable(24) %enum_generators_) #3
  %cmp = icmp ult i64 %conv, %call
  br i1 %cmp, label %for.body, label %for.end

for.body:                                         ; preds = %for.cond
  %enum_generators_2 = getelementptr inbounds %"class.google::protobuf::compiler::cpp::FileGenerator", ptr %this1, i32 0, i32 8
  %1 = load i32, ptr %i, align 4
  %conv3 = sext i32 %1 to i64
  %call4 = call noundef nonnull align 8 dereferenceable(8) ptr @_ZNSt6vectorISt10unique_ptrIN6google8protobuf8compiler3cpp13EnumGeneratorESt14default_deleteIS5_EESaIS8_EEixEm(ptr noundef nonnull align 8 dereferenceable(24) %enum_generators_2, i64 noundef %conv3) #3
  %call5 = call noundef ptr @_ZNKSt10unique_ptrIN6google8protobuf8compiler3cpp13EnumGeneratorESt14default_deleteIS4_EEptEv(ptr noundef nonnull align 8 dereferenceable(8) %call4) #3
  %2 = load ptr, ptr %p.addr, align 8
  call void @_ZN6google8protobuf8compiler3cpp13EnumGenerator18GenerateDefinitionEPNS0_2io7PrinterE(ptr noundef nonnull align 8 dereferenceable(240) %call5, ptr noundef %2)
  br label %for.inc

for.inc:                                          ; preds = %for.body
  %3 = load i32, ptr %i, align 4
  %inc = add nsw i32 %3, 1
  store i32 %inc, ptr %i, align 4
  br label %for.cond, !llvm.loop !43

for.end:                                          ; preds = %for.cond
  ret void
}