; Function Attrs: mustprogress uwtable
define void @_ZN6google8protobuf8compiler3cpp13FileGenerator23GenerateEnumDefinitionsEPNS0_2io7PrinterE(ptr nocapture noundef nonnull readonly align 8 dereferenceable(752) %this, ptr noundef %p) local_unnamed_addr #3 align 2 {
entry:
  %enum_generators_ = getelementptr inbounds i8, ptr %this, i64 680
  %_M_finish.i = getelementptr inbounds i8, ptr %this, i64 688
  %0 = load ptr, ptr %_M_finish.i, align 8
  %1 = load ptr, ptr %enum_generators_, align 8
  %cmp7.not = icmp eq ptr %0, %1
  br i1 %cmp7.not, label %for.end, label %for.body

for.body:                                         ; preds = %entry, %for.body
  %indvars.iv = phi i64 [ %indvars.iv.next, %for.body ], [ 0, %entry ]
  %2 = phi ptr [ %5, %for.body ], [ %1, %entry ]
  %add.ptr.i = getelementptr inbounds %"class.std::unique_ptr.143", ptr %2, i64 %indvars.iv
  %3 = load ptr, ptr %add.ptr.i, align 8
  tail call void @_ZN6google8protobuf8compiler3cpp13EnumGenerator18GenerateDefinitionEPNS0_2io7PrinterE(ptr noundef nonnull align 8 dereferenceable(240) %3, ptr noundef %p)
  %indvars.iv.next = add nuw nsw i64 %indvars.iv, 1
  %4 = load ptr, ptr %_M_finish.i, align 8
  %5 = load ptr, ptr %enum_generators_, align 8
  %sub.ptr.lhs.cast.i = ptrtoint ptr %4 to i64
  %sub.ptr.rhs.cast.i = ptrtoint ptr %5 to i64
  %sub.ptr.sub.i = sub i64 %sub.ptr.lhs.cast.i, %sub.ptr.rhs.cast.i
  %sub.ptr.div.i = ashr exact i64 %sub.ptr.sub.i, 3
  %cmp = icmp ugt i64 %sub.ptr.div.i, %indvars.iv.next
  br i1 %cmp, label %for.body, label %for.end, !llvm.loop !299

for.end:                                          ; preds = %for.body, %entry
  ret void
}